; Function Attrs: nounwind uwtable
define internal noundef i32 @imap_disconnect(ptr noundef %0, ptr noundef %1, i1 noundef zeroext %2) #0 {
  br i1 %2, label %imap_perform_logout.exit, label %4

4:                                                ; preds = %3
  %5 = getelementptr inbounds nuw i8, ptr %1, i64 952
  %6 = load i64, ptr %5, align 8
  %7 = and i64 %6, 8192
  %.not = icmp eq i64 %7, 0
  br i1 %.not, label %imap_perform_logout.exit, label %8

8:                                                ; preds = %4
  %9 = tail call i32 (ptr, ptr, ...) @imap_sendf(ptr noundef %0, ptr noundef nonnull @.str.69)
  %.not.i = icmp eq i32 %9, 0
  br i1 %.not.i, label %10, label %imap_perform_logout.exit

10:                                               ; preds = %8
  %11 = getelementptr i8, ptr %0, i64 24
  %.val.i = load ptr, ptr %11, align 8, !tbaa !98
  %12 = getelementptr inbounds nuw i8, ptr %.val.i, i64 1328
  store i32 14, ptr %12, align 8, !tbaa !110
  %13 = getelementptr inbounds nuw i8, ptr %1, i64 1088
  %14 = getelementptr inbounds nuw i8, ptr %1, i64 1328
  %15 = load i32, ptr %14, align 8, !tbaa !110
  %.not6.i = icmp eq i32 %15, 0
  br i1 %.not6.i, label %imap_perform_logout.exit, label %.lr.ph.i

.lr.ph.i:                                         ; preds = %10, %.lr.ph.i
  %16 = tail call i32 @Curl_pp_statemach(ptr noundef %0, ptr noundef nonnull %13, i1 noundef zeroext true, i1 noundef zeroext true) #7
  %17 = load i32, ptr %14, align 8, !tbaa !110
  %18 = icmp ne i32 %17, 0
  %.not.i14 = icmp eq i32 %16, 0
  %19 = select i1 %18, i1 %.not.i14, i1 false
  br i1 %19, label %.lr.ph.i, label %imap_perform_logout.exit, !llvm.loop !131

imap_perform_logout.exit:                         ; preds = %.lr.ph.i, %10, %8, %4, %3
  %20 = getelementptr inbounds nuw i8, ptr %1, i64 1088
  %21 = tail call i32 @Curl_pp_disconnect(ptr noundef nonnull %20) #7
  %22 = getelementptr inbounds nuw i8, ptr %1, i64 1280
  tail call void @Curl_dyn_free(ptr noundef nonnull %22) #7
  %23 = getelementptr inbounds nuw i8, ptr %1, i64 1276
  %24 = load i16, ptr %23, align 4, !tbaa !132
  tail call void @Curl_sasl_cleanup(ptr noundef %1, i16 noundef zeroext %24) #7
  %25 = load ptr, ptr @Curl_cfree, align 8, !tbaa !3
  %26 = getelementptr inbounds nuw i8, ptr %1, i64 1312
  %27 = load ptr, ptr %26, align 8, !tbaa !100
  tail call void %25(ptr noundef %27) #7
  store ptr null, ptr %26, align 8, !tbaa !100
  %28 = load ptr, ptr @Curl_cfree, align 8, !tbaa !3
  %29 = getelementptr inbounds nuw i8, ptr %1, i64 1320
  %30 = load ptr, ptr %29, align 8, !tbaa !105
  tail call void %28(ptr noundef %30) #7
  store ptr null, ptr %29, align 8, !tbaa !105
  ret i32 0
}